target datalayout = "e-m:e-p270:32:32-p271:32:32-p272:64:64-i64:64-i128:128-f80:128-n8:16:32:64-S128"
target triple = "x86_64-pc-linux-gnu"

@_ZN19OpenColorIO_v2_5devL10ATTR_STYLEE = internal constant [6 x i8] c"style\00", align 1
@_ZN19OpenColorIO_v2_5devL22ATTR_BYPASS_LIN_TO_LOGE = internal constant [15 x i8] c"bypassLinToLog\00", align 1

; Function Attrs: mustprogress nounwind uwtable
define hidden noundef zeroext i1 @_ZNK19OpenColorIO_v2_5dev27CTFReaderGradingRGBCurveElt18isOpParameterValidEPKc(ptr noundef nonnull align 8 dereferenceable(136) %0, ptr noundef %1) unnamed_addr #4 align 2 personality ptr @__gxx_personality_v0 {
  %3 = alloca ptr, align 8
  %4 = alloca ptr, align 8
  store ptr %0, ptr %3, align 8, !tbaa !359
  store ptr %1, ptr %4, align 8, !tbaa !54
  %5 = load ptr, ptr %3, align 8
  %6 = load ptr, ptr %4, align 8, !tbaa !54
  %7 = call noundef zeroext i1 @_ZNK19OpenColorIO_v2_5dev14CTFReaderOpElt18isOpParameterValidEPKc(ptr noundef nonnull align 8 dereferenceable(104) %5, ptr noundef %6) #3
  br i1 %7, label %18, label %8

8:                                                ; preds = %2
  %9 = load ptr, ptr %4, align 8, !tbaa !54
  %10 = invoke noundef i32 @_ZN19OpenColorIO_v2_5dev8Platform10StrcasecmpEPKcS2_(ptr noundef @_ZN19OpenColorIO_v2_5devL10ATTR_STYLEE, ptr noundef %9)
          to label %11 unwind label %20

11:                                               ; preds = %8
  %12 = icmp eq i32 0, %10
  br i1 %12, label %18, label %13

13:                                               ; preds = %11
  %14 = load ptr, ptr %4, align 8, !tbaa !54
  %15 = invoke noundef i32 @_ZN19OpenColorIO_v2_5dev8Platform10StrcasecmpEPKcS2_(ptr noundef @_ZN19OpenColorIO_v2_5devL22ATTR_BYPASS_LIN_TO_LOGE, ptr noundef %14)
          to label %16 unwind label %20

16:                                               ; preds = %13
  %17 = icmp eq i32 0, %15
  br label %18

18:                                               ; preds = %16, %11, %2
  %19 = phi i1 [ true, %11 ], [ true, %2 ], [ %17, %16 ]
  ret i1 %19

20:                                               ; preds = %13, %8
  %21 = landingpad { ptr, i32 }
          catch ptr null
  %22 = extractvalue { ptr, i32 } %21, 0
  call void @__clang_call_terminate(ptr %22) #27
  unreachable
}