; Function Attrs: mustprogress nounwind uwtable
define hidden noundef zeroext i1 @_ZNK19OpenColorIO_v2_5dev27CTFReaderGradingRGBCurveElt18isOpParameterValidEPKc(ptr noundef nonnull readonly align 8 captures(none) dereferenceable(136) %0, ptr noundef %1) unnamed_addr #3 align 2 personality ptr @__gxx_personality_v0 {
  %3 = tail call noundef zeroext i1 @_ZNK19OpenColorIO_v2_5dev14CTFReaderOpElt18isOpParameterValidEPKc(ptr noundef nonnull align 8 dereferenceable(104) %0, ptr noundef %1) #33
  br i1 %3, label %12, label %4

4:                                                ; preds = %2
  %5 = invoke noundef i32 @_ZN19OpenColorIO_v2_5dev8Platform10StrcasecmpEPKcS2_(ptr noundef nonnull @_ZN19OpenColorIO_v2_5devL10ATTR_STYLEE, ptr noundef %1)
          to label %6 unwind label %14

6:                                                ; preds = %4
  %7 = icmp eq i32 %5, 0
  br i1 %7, label %12, label %8

8:                                                ; preds = %6
  %9 = invoke noundef i32 @_ZN19OpenColorIO_v2_5dev8Platform10StrcasecmpEPKcS2_(ptr noundef nonnull @_ZN19OpenColorIO_v2_5devL22ATTR_BYPASS_LIN_TO_LOGE, ptr noundef %1)
          to label %10 unwind label %14

10:                                               ; preds = %8
  %11 = icmp eq i32 %9, 0
  br label %12

12:                                               ; preds = %10, %6, %2
  %13 = phi i1 [ true, %6 ], [ true, %2 ], [ %11, %10 ]
  ret i1 %13

14:                                               ; preds = %8, %4
  %15 = landingpad { ptr, i32 }
          catch ptr null
  %16 = extractvalue { ptr, i32 } %15, 0
  tail call void @__clang_call_terminate(ptr %16) #37
  unreachable
}